; Function Attrs: mustprogress uwtable
define hidden void @_ZNK12mpff_manager11display_rawERSoRK4mpff(ptr noundef nonnull readonly align 8 captures(none) dereferenceable(89) %0, ptr noundef nonnull align 8 dereferenceable(8) %1, ptr noundef nonnull readonly align 4 captures(none) dereferenceable(8) %2) local_unnamed_addr #3 align 2 {
  %4 = load i32, ptr %2, align 4
  %5 = and i32 %4, 1
  %.not11 = icmp eq i32 %5, 0
  br i1 %.not11, label %8, label %6

6:                                                ; preds = %3
  %7 = tail call noundef nonnull align 8 dereferenceable(8) ptr @_ZSt16__ostream_insertIcSt11char_traitsIcEERSt13basic_ostreamIT_T0_ES6_PKS3_l(ptr noundef nonnull align 8 dereferenceable(8) %1, ptr noundef nonnull @.str.4, i64 noundef 1)
  %.pre = load i32, ptr %2, align 4
  br label %8

8:                                                ; preds = %6, %3
  %9 = phi i32 [ %.pre, %6 ], [ %4, %3 ]
  %10 = getelementptr inbounds nuw i8, ptr %0, i64 8
  %11 = load ptr, ptr %10, align 8, !tbaa !3
  %12 = lshr i32 %9, 1
  %13 = load i32, ptr %0, align 8, !tbaa !13
  %14 = mul i32 %12, %13
  %15 = zext i32 %14 to i64
  %16 = getelementptr inbounds nuw i32, ptr %11, i64 %15
  %invariant.gep = getelementptr i8, ptr %1, i64 24
  %invariant.gep12 = getelementptr i8, ptr %1, i64 16
  %.not14 = icmp eq i32 %13, 0
  br i1 %.not14, label %._crit_edge, label %.lr.ph.preheader

.lr.ph.preheader:                                 ; preds = %8
  %17 = zext i32 %13 to i64
  br label %.lr.ph

.lr.ph:                                           ; preds = %.lr.ph.preheader, %_ZStlsIcSt11char_traitsIcEERSt13basic_ostreamIT_T0_ES6_St8_SetfillIS3_E.exit
  %indvars.iv = phi i64 [ %17, %.lr.ph.preheader ], [ %18, %_ZStlsIcSt11char_traitsIcEERSt13basic_ostreamIT_T0_ES6_St8_SetfillIS3_E.exit ]
  %18 = add nsw i64 %indvars.iv, -1
  %19 = load ptr, ptr %1, align 8, !tbaa !24
  %20 = getelementptr i8, ptr %19, i64 -24
  %21 = load i64, ptr %20, align 8
  %gep = getelementptr i8, ptr %invariant.gep, i64 %21
  %22 = load i32, ptr %gep, align 8, !tbaa !87
  %23 = and i32 %22, -75
  %24 = or disjoint i32 %23, 8
  store i32 %24, ptr %gep, align 4, !tbaa !96
  %25 = load i64, ptr %20, align 8
  %26 = getelementptr inbounds i8, ptr %1, i64 %25
  %27 = getelementptr inbounds nuw i8, ptr %26, i64 225
  %28 = load i8, ptr %27, align 1, !tbaa !97, !range !50, !noundef !51
  %29 = trunc nuw i8 %28 to i1
  br i1 %29, label %_ZStlsIcSt11char_traitsIcEERSt13basic_ostreamIT_T0_ES6_St8_SetfillIS3_E.exit, label %30

30:                                               ; preds = %.lr.ph
  %31 = getelementptr inbounds nuw i8, ptr %26, i64 240
  %32 = load ptr, ptr %31, align 8, !tbaa !104
  %.not.i.i.i.i.i = icmp eq ptr %32, null
  br i1 %.not.i.i.i.i.i, label %33, label %_ZSt13__check_facetISt5ctypeIcEERKT_PS3_.exit.i.i.i.i

33:                                               ; preds = %30
  tail call void @_ZSt16__throw_bad_castv() #26
  unreachable

_ZSt13__check_facetISt5ctypeIcEERKT_PS3_.exit.i.i.i.i: ; preds = %30
  %34 = getelementptr inbounds nuw i8, ptr %32, i64 56
  %35 = load i8, ptr %34, align 8, !tbaa !105
  %.not.i1.i.i.i.i = icmp eq i8 %35, 0
  br i1 %.not.i1.i.i.i.i, label %36, label %_ZNKSt9basic_iosIcSt11char_traitsIcEE5widenEc.exit.i.i.i

36:                                               ; preds = %_ZSt13__check_facetISt5ctypeIcEERKT_PS3_.exit.i.i.i.i
  tail call void @_ZNKSt5ctypeIcE13_M_widen_initEv(ptr noundef nonnull align 8 dereferenceable(570) %32)
  %37 = load ptr, ptr %32, align 8, !tbaa !24
  %38 = getelementptr inbounds nuw i8, ptr %37, i64 48
  %39 = load ptr, ptr %38, align 8
  %40 = tail call noundef signext i8 %39(ptr noundef nonnull align 8 dereferenceable(570) %32, i8 noundef signext 32)
  %.pre17.pre = load ptr, ptr %1, align 8, !tbaa !24
  br label %_ZNKSt9basic_iosIcSt11char_traitsIcEE5widenEc.exit.i.i.i

_ZNKSt9basic_iosIcSt11char_traitsIcEE5widenEc.exit.i.i.i: ; preds = %36, %_ZSt13__check_facetISt5ctypeIcEERKT_PS3_.exit.i.i.i.i
  %.pre17 = phi ptr [ %.pre17.pre, %36 ], [ %19, %_ZSt13__check_facetISt5ctypeIcEERKT_PS3_.exit.i.i.i.i ]
  store i8 1, ptr %27, align 1, !tbaa !97
  br label %_ZStlsIcSt11char_traitsIcEERSt13basic_ostreamIT_T0_ES6_St8_SetfillIS3_E.exit

_ZStlsIcSt11char_traitsIcEERSt13basic_ostreamIT_T0_ES6_St8_SetfillIS3_E.exit: ; preds = %.lr.ph, %_ZNKSt9basic_iosIcSt11char_traitsIcEE5widenEc.exit.i.i.i
  %41 = phi ptr [ %19, %.lr.ph ], [ %.pre17, %_ZNKSt9basic_iosIcSt11char_traitsIcEE5widenEc.exit.i.i.i ]
  %42 = getelementptr inbounds nuw i8, ptr %26, i64 224
  store i8 48, ptr %42, align 8, !tbaa !110
  %43 = getelementptr i8, ptr %41, i64 -24
  %44 = load i64, ptr %43, align 8
  %gep13 = getelementptr i8, ptr %invariant.gep12, i64 %44
  store i64 8, ptr %gep13, align 8, !tbaa !111
  %45 = getelementptr inbounds nuw i32, ptr %16, i64 %18
  %46 = load i32, ptr %45, align 4, !tbaa !21
  %47 = zext i32 %46 to i64
  %48 = tail call noundef nonnull align 8 dereferenceable(8) ptr @_ZNSo9_M_insertImEERSoT_(ptr noundef nonnull align 8 dereferenceable(8) %1, i64 noundef %47)
  %.not.wide = icmp eq i64 %18, 0
  br i1 %.not.wide, label %._crit_edge, label %.lr.ph, !llvm.loop !112

._crit_edge:                                      ; preds = %_ZStlsIcSt11char_traitsIcEERSt13basic_ostreamIT_T0_ES6_St8_SetfillIS3_E.exit, %8
  %49 = tail call noundef nonnull align 8 dereferenceable(8) ptr @_ZSt16__ostream_insertIcSt11char_traitsIcEERSt13basic_ostreamIT_T0_ES6_PKS3_l(ptr noundef nonnull align 8 dereferenceable(8) %1, ptr noundef nonnull @.str.5, i64 noundef 3)
  %50 = load ptr, ptr %1, align 8, !tbaa !24
  %51 = getelementptr i8, ptr %50, i64 -24
  %52 = load i64, ptr %51, align 8
  %53 = getelementptr inbounds i8, ptr %1, i64 %52
  %54 = getelementptr inbounds nuw i8, ptr %53, i64 24
  %55 = load i32, ptr %54, align 8, !tbaa !87
  %56 = and i32 %55, -75
  %57 = or disjoint i32 %56, 2
  store i32 %57, ptr %54, align 4, !tbaa !96
  %58 = getelementptr inbounds nuw i8, ptr %2, i64 4
  %59 = load i32, ptr %58, align 4, !tbaa !35
  %60 = tail call noundef nonnull align 8 dereferenceable(8) ptr @_ZNSolsEi(ptr noundef nonnull align 8 dereferenceable(8) %1, i32 noundef %59)
  ret void
}